; ModuleID = '24/2640.c'
source_filename = "24/2640.c"
target datalayout = "e-m:e-p270:32:32-p271:32:32-p272:64:64-i64:64-f80:128-n8:16:32:64-S128"
target triple = "x86_64-pc-linux-gnu"

@.str = private unnamed_addr constant [3 x i8] c"%d\00", align 1
@.str.1 = private unnamed_addr constant [3 x i8] c"%s\00", align 1
@.str.2 = private unnamed_addr constant [4 x i8] c"%s\0A\00", align 1

; Function Attrs: noinline nounwind uwtable
define dso_local void @main() #0 {
  %1 = alloca i32, align 4
  %2 = alloca i32, align 4
  %3 = alloca i32, align 4
  %4 = alloca i32, align 4
  %5 = alloca [1000 x [50 x i8]], align 16
  %6 = alloca [1000 x i32], align 16
  %7 = alloca i32*, align 8
  %8 = alloca [50 x i8]*, align 8
  %9 = call i32 (i8*, ...) @__isoc99_scanf(i8* getelementptr inbounds ([3 x i8], [3 x i8]* @.str, i64 0, i64 0), i32* %1)
  %10 = getelementptr inbounds [1000 x i32], [1000 x i32]* %6, i64 0, i64 0
  store i32* %10, i32** %7, align 8
  %11 = getelementptr inbounds [1000 x [50 x i8]], [1000 x [50 x i8]]* %5, i64 0, i64 0
  store [50 x i8]* %11, [50 x i8]** %8, align 8
  store i32 0, i32* %2, align 4
  br label %12

12:                                               ; preds = %34, %0
  %13 = load i32, i32* %2, align 4
  %14 = load i32, i32* %1, align 4
  %15 = icmp slt i32 %13, %14
  br i1 %15, label %16, label %37

16:                                               ; preds = %12
  %17 = load [50 x i8]*, [50 x i8]** %8, align 8
  %18 = load i32, i32* %2, align 4
  %19 = sext i32 %18 to i64
  %20 = getelementptr inbounds [50 x i8], [50 x i8]* %17, i64 %19
  %21 = getelementptr inbounds [50 x i8], [50 x i8]* %20, i64 0, i64 0
  %22 = call i32 (i8*, ...) @__isoc99_scanf(i8* getelementptr inbounds ([3 x i8], [3 x i8]* @.str.1, i64 0, i64 0), i8* %21)
  %23 = load [50 x i8]*, [50 x i8]** %8, align 8
  %24 = load i32, i32* %2, align 4
  %25 = sext i32 %24 to i64
  %26 = getelementptr inbounds [50 x i8], [50 x i8]* %23, i64 %25
  %27 = getelementptr inbounds [50 x i8], [50 x i8]* %26, i64 0, i64 0
  %28 = call i64 @strlen(i8* %27) #3
  %29 = trunc i64 %28 to i32
  %30 = load i32*, i32** %7, align 8
  %31 = load i32, i32* %2, align 4
  %32 = sext i32 %31 to i64
  %33 = getelementptr inbounds i32, i32* %30, i64 %32
  store i32 %29, i32* %33, align 4
  br label %34

34:                                               ; preds = %16
  %35 = load i32, i32* %2, align 4
  %36 = add nsw i32 %35, 1
  store i32 %36, i32* %2, align 4
  br label %12

37:                                               ; preds = %12
  store i32 1, i32* %2, align 4
  br label %38

38:                                               ; preds = %89, %37
  %39 = load i32, i32* %2, align 4
  %40 = load i32, i32* %1, align 4
  %41 = icmp slt i32 %39, %40
  br i1 %41, label %42, label %92

42:                                               ; preds = %38
  store i32 0, i32* %3, align 4
  br label %43

43:                                               ; preds = %85, %42
  %44 = load i32, i32* %3, align 4
  %45 = load i32, i32* %1, align 4
  %46 = load i32, i32* %2, align 4
  %47 = sub nsw i32 %45, %46
  %48 = icmp slt i32 %44, %47
  br i1 %48, label %49, label %88

49:                                               ; preds = %43
  %50 = load i32*, i32** %7, align 8
  %51 = load i32, i32* %3, align 4
  %52 = sext i32 %51 to i64
  %53 = getelementptr inbounds i32, i32* %50, i64 %52
  %54 = load i32, i32* %53, align 4
  %55 = load i32*, i32** %7, align 8
  %56 = load i32, i32* %3, align 4
  %57 = sext i32 %56 to i64
  %58 = getelementptr inbounds i32, i32* %55, i64 %57
  %59 = getelementptr inbounds i32, i32* %58, i64 1
  %60 = load i32, i32* %59, align 4
  %61 = icmp sgt i32 %54, %60
  br i1 %61, label %62, label %84

62:                                               ; preds = %49
  %63 = load i32*, i32** %7, align 8
  %64 = load i32, i32* %3, align 4
  %65 = sext i32 %64 to i64
  %66 = getelementptr inbounds i32, i32* %63, i64 %65
  %67 = load i32, i32* %66, align 4
  store i32 %67, i32* %4, align 4
  %68 = load i32*, i32** %7, align 8
  %69 = load i32, i32* %3, align 4
  %70 = sext i32 %69 to i64
  %71 = getelementptr inbounds i32, i32* %68, i64 %70
  %72 = getelementptr inbounds i32, i32* %71, i64 1
  %73 = load i32, i32* %72, align 4
  %74 = load i32*, i32** %7, align 8
  %75 = load i32, i32* %3, align 4
  %76 = sext i32 %75 to i64
  %77 = getelementptr inbounds i32, i32* %74, i64 %76
  store i32 %73, i32* %77, align 4
  %78 = load i32, i32* %4, align 4
  %79 = load i32*, i32** %7, align 8
  %80 = load i32, i32* %3, align 4
  %81 = sext i32 %80 to i64
  %82 = getelementptr inbounds i32, i32* %79, i64 %81
  %83 = getelementptr inbounds i32, i32* %82, i64 1
  store i32 %78, i32* %83, align 4
  br label %84

84:                                               ; preds = %62, %49
  br label %85

85:                                               ; preds = %84
  %86 = load i32, i32* %3, align 4
  %87 = add nsw i32 %86, 1
  store i32 %87, i32* %3, align 4
  br label %43

88:                                               ; preds = %43
  br label %89

89:                                               ; preds = %88
  %90 = load i32, i32* %2, align 4
  %91 = add nsw i32 %90, 1
  store i32 %91, i32* %2, align 4
  br label %38

92:                                               ; preds = %38
  store i32 0, i32* %2, align 4
  br label %93

93:                                               ; preds = %121, %92
  %94 = load i32, i32* %2, align 4
  %95 = load i32, i32* %1, align 4
  %96 = icmp slt i32 %94, %95
  br i1 %96, label %97, label %124

97:                                               ; preds = %93
  %98 = load [50 x i8]*, [50 x i8]** %8, align 8
  %99 = load i32, i32* %2, align 4
  %100 = sext i32 %99 to i64
  %101 = getelementptr inbounds [50 x i8], [50 x i8]* %98, i64 %100
  %102 = getelementptr inbounds [50 x i8], [50 x i8]* %101, i64 0, i64 0
  %103 = call i64 @strlen(i8* %102) #3
  %104 = trunc i64 %103 to i32
  store i32 %104, i32* %4, align 4
  %105 = load i32, i32* %4, align 4
  %106 = load i32*, i32** %7, align 8
  %107 = load i32, i32* %1, align 4
  %108 = sext i32 %107 to i64
  %109 = getelementptr inbounds i32, i32* %106, i64 %108
  %110 = getelementptr inbounds i32, i32* %109, i64 -1
  %111 = load i32, i32* %110, align 4
  %112 = icmp eq i32 %105, %111
  br i1 %112, label %113, label %120

113:                                              ; preds = %97
  %114 = load [50 x i8]*, [50 x i8]** %8, align 8
  %115 = load i32, i32* %2, align 4
  %116 = sext i32 %115 to i64
  %117 = getelementptr inbounds [50 x i8], [50 x i8]* %114, i64 %116
  %118 = getelementptr inbounds [50 x i8], [50 x i8]* %117, i64 0, i64 0
  %119 = call i32 (i8*, ...) @printf(i8* getelementptr inbounds ([4 x i8], [4 x i8]* @.str.2, i64 0, i64 0), i8* %118)
  br label %124

120:                                              ; preds = %97
  br label %121

121:                                              ; preds = %120
  %122 = load i32, i32* %2, align 4
  %123 = add nsw i32 %122, 1
  store i32 %123, i32* %2, align 4
  br label %93

124:                                              ; preds = %113, %93
  store i32 0, i32* %2, align 4
  br label %125

125:                                              ; preds = %150, %124
  %126 = load i32, i32* %2, align 4
  %127 = load i32, i32* %1, align 4
  %128 = icmp slt i32 %126, %127
  br i1 %128, label %129, label %153

129:                                              ; preds = %125
  %130 = load [50 x i8]*, [50 x i8]** %8, align 8
  %131 = load i32, i32* %2, align 4
  %132 = sext i32 %131 to i64
  %133 = getelementptr inbounds [50 x i8], [50 x i8]* %130, i64 %132
  %134 = getelementptr inbounds [50 x i8], [50 x i8]* %133, i64 0, i64 0
  %135 = call i64 @strlen(i8* %134) #3
  %136 = trunc i64 %135 to i32
  store i32 %136, i32* %4, align 4
  %137 = load i32, i32* %4, align 4
  %138 = load i32*, i32** %7, align 8
  %139 = getelementptr inbounds i32, i32* %138, i64 0
  %140 = load i32, i32* %139, align 4
  %141 = icmp eq i32 %137, %140
  br i1 %141, label %142, label %149

142:                                              ; preds = %129
  %143 = load [50 x i8]*, [50 x i8]** %8, align 8
  %144 = load i32, i32* %2, align 4
  %145 = sext i32 %144 to i64
  %146 = getelementptr inbounds [50 x i8], [50 x i8]* %143, i64 %145
  %147 = getelementptr inbounds [50 x i8], [50 x i8]* %146, i64 0, i64 0
  %148 = call i32 (i8*, ...) @printf(i8* getelementptr inbounds ([3 x i8], [3 x i8]* @.str.1, i64 0, i64 0), i8* %147)
  br label %153

149:                                              ; preds = %129
  br label %150

150:                                              ; preds = %149
  %151 = load i32, i32* %2, align 4
  %152 = add nsw i32 %151, 1
  store i32 %152, i32* %2, align 4
  br label %125

153:                                              ; preds = %142, %125
  ret void
}

declare dso_local i32 @__isoc99_scanf(i8*, ...) #1

; Function Attrs: nounwind readonly
declare dso_local i64 @strlen(i8*) #2

declare dso_local i32 @printf(i8*, ...) #1


!llvm.module.flags = !{!0}
!llvm.ident = !{!1}

!0 = !{i32 1, !"wchar_size", i32 4}
!1 = !{!"clang version 10.0.0-4ubuntu1 "}
